target datalayout = "e-m:e-p270:32:32-p271:32:32-p272:64:64-i64:64-i128:128-f80:128-n8:16:32:64-S128"
target triple = "x86_64-pc-linux-gnu"

%struct.float64_t = type { i64 }
%union.ui64_f64 = type { i64 }

@softfloat_exceptionFlags = external thread_local global i8, align 1

; Function Attrs: nounwind uwtable
define i64 @f64_to_ui64_r_minMag(i64 %0, i1 noundef zeroext %1) #0 {
  %3 = alloca i64, align 8
  %4 = alloca %struct.float64_t, align 8
  %5 = alloca i8, align 1
  %6 = alloca %union.ui64_f64, align 8
  %7 = alloca i64, align 8
  %8 = alloca i64, align 8
  %9 = alloca i64, align 8
  %10 = alloca i64, align 8
  %11 = alloca i8, align 1
  %12 = alloca i64, align 8
  %13 = alloca i32, align 4
  %14 = getelementptr inbounds nuw %struct.float64_t, ptr %4, i32 0, i32 0
  store i64 %0, ptr %14, align 8
  %15 = zext i1 %1 to i8
  store i8 %15, ptr %5, align 1, !tbaa !3
  call void @llvm.lifetime.start.p0(i64 8, ptr %6) #5
  call void @llvm.lifetime.start.p0(i64 8, ptr %7) #5
  call void @llvm.lifetime.start.p0(i64 8, ptr %8) #5
  call void @llvm.lifetime.start.p0(i64 8, ptr %9) #5
  call void @llvm.lifetime.start.p0(i64 8, ptr %10) #5
  call void @llvm.lifetime.start.p0(i64 1, ptr %11) #5
  call void @llvm.lifetime.start.p0(i64 8, ptr %12) #5
  call void @llvm.memcpy.p0.p0.i64(ptr align 8 %6, ptr align 8 %4, i64 8, i1 false), !tbaa.struct !7
  %16 = load i64, ptr %6, align 8, !tbaa !10
  store i64 %16, ptr %7, align 8, !tbaa !8
  %17 = load i64, ptr %7, align 8, !tbaa !8
  %18 = lshr i64 %17, 52
  %19 = and i64 %18, 2047
  store i64 %19, ptr %8, align 8, !tbaa !8
  %20 = load i64, ptr %7, align 8, !tbaa !8
  %21 = and i64 %20, 4503599627370495
  store i64 %21, ptr %9, align 8, !tbaa !8
  %22 = load i64, ptr %8, align 8, !tbaa !8
  %23 = sub nsw i64 1075, %22
  store i64 %23, ptr %10, align 8, !tbaa !8
  %24 = load i64, ptr %10, align 8, !tbaa !8
  %25 = icmp sle i64 53, %24
  br i1 %25, label %26, label %41

26:                                               ; preds = %2
  %27 = load i8, ptr %5, align 1, !tbaa !3, !range !11, !noundef !12
  %28 = trunc i8 %27 to i1
  br i1 %28, label %29, label %40

29:                                               ; preds = %26
  %30 = load i64, ptr %8, align 8, !tbaa !8
  %31 = load i64, ptr %9, align 8, !tbaa !8
  %32 = or i64 %30, %31
  %33 = icmp ne i64 %32, 0
  br i1 %33, label %34, label %40

34:                                               ; preds = %29
  %35 = call align 1 ptr @llvm.threadlocal.address.p0(ptr align 1 @softfloat_exceptionFlags)
  %36 = load i8, ptr %35, align 1, !tbaa !10
  %37 = zext i8 %36 to i32
  %38 = or i32 %37, 1
  %39 = trunc i32 %38 to i8
  store i8 %39, ptr %35, align 1, !tbaa !10
  br label %40

40:                                               ; preds = %34, %29, %26
  store i64 0, ptr %3, align 8
  store i32 1, ptr %13, align 4
  br label %99

41:                                               ; preds = %2
  %42 = load i64, ptr %7, align 8, !tbaa !8
  %43 = lshr i64 %42, 63
  %44 = icmp ne i64 %43, 0
  %45 = zext i1 %44 to i8
  store i8 %45, ptr %11, align 1, !tbaa !3
  %46 = load i8, ptr %11, align 1, !tbaa !3, !range !11, !noundef !12
  %47 = trunc i8 %46 to i1
  br i1 %47, label %48, label %49

48:                                               ; preds = %41
  br label %86

49:                                               ; preds = %41
  %50 = load i64, ptr %10, align 8, !tbaa !8
  %51 = icmp sle i64 %50, 0
  br i1 %51, label %52, label %62

52:                                               ; preds = %49
  %53 = load i64, ptr %10, align 8, !tbaa !8
  %54 = icmp slt i64 %53, -11
  br i1 %54, label %55, label %56

55:                                               ; preds = %52
  br label %86

56:                                               ; preds = %52
  %57 = load i64, ptr %9, align 8, !tbaa !8
  %58 = or i64 %57, 4503599627370496
  %59 = load i64, ptr %10, align 8, !tbaa !8
  %60 = sub nsw i64 0, %59
  %61 = shl i64 %58, %60
  store i64 %61, ptr %12, align 8, !tbaa !8
  br label %84

62:                                               ; preds = %49
  %63 = load i64, ptr %9, align 8, !tbaa !8
  %64 = or i64 %63, 4503599627370496
  store i64 %64, ptr %9, align 8, !tbaa !8
  %65 = load i64, ptr %9, align 8, !tbaa !8
  %66 = load i64, ptr %10, align 8, !tbaa !8
  %67 = lshr i64 %65, %66
  store i64 %67, ptr %12, align 8, !tbaa !8
  %68 = load i8, ptr %5, align 1, !tbaa !3, !range !11, !noundef !12
  %69 = trunc i8 %68 to i1
  br i1 %69, label %70, label %83

70:                                               ; preds = %62
  %71 = load i64, ptr %9, align 8, !tbaa !8
  %72 = load i64, ptr %10, align 8, !tbaa !8
  %73 = sub nsw i64 0, %72
  %74 = and i64 %73, 63
  %75 = shl i64 %71, %74
  %76 = icmp ne i64 %75, 0
  br i1 %76, label %77, label %83

77:                                               ; preds = %70
  %78 = call align 1 ptr @llvm.threadlocal.address.p0(ptr align 1 @softfloat_exceptionFlags)
  %79 = load i8, ptr %78, align 1, !tbaa !10
  %80 = zext i8 %79 to i32
  %81 = or i32 %80, 1
  %82 = trunc i32 %81 to i8
  store i8 %82, ptr %78, align 1, !tbaa !10
  br label %83

83:                                               ; preds = %77, %70, %62
  br label %84

84:                                               ; preds = %83, %56
  %85 = load i64, ptr %12, align 8, !tbaa !8
  store i64 %85, ptr %3, align 8
  store i32 1, ptr %13, align 4
  br label %99

86:                                               ; preds = %55, %48
  call void @softfloat_raiseFlags(i8 noundef zeroext 16)
  %87 = load i64, ptr %8, align 8, !tbaa !8
  %88 = icmp eq i64 %87, 2047
  br i1 %88, label %89, label %93

89:                                               ; preds = %86
  %90 = load i64, ptr %9, align 8, !tbaa !8
  %91 = icmp ne i64 %90, 0
  br i1 %91, label %92, label %93

92:                                               ; preds = %89
  br label %97

93:                                               ; preds = %89, %86
  %94 = load i8, ptr %11, align 1, !tbaa !3, !range !11, !noundef !12
  %95 = trunc i8 %94 to i1
  %96 = select i1 %95, i64 0, i64 -1
  br label %97

97:                                               ; preds = %93, %92
  %98 = phi i64 [ -1, %92 ], [ %96, %93 ]
  store i64 %98, ptr %3, align 8
  store i32 1, ptr %13, align 4
  br label %99

99:                                               ; preds = %97, %84, %40
  call void @llvm.lifetime.end.p0(i64 8, ptr %12) #5
  call void @llvm.lifetime.end.p0(i64 1, ptr %11) #5
  call void @llvm.lifetime.end.p0(i64 8, ptr %10) #5
  call void @llvm.lifetime.end.p0(i64 8, ptr %9) #5
  call void @llvm.lifetime.end.p0(i64 8, ptr %8) #5
  call void @llvm.lifetime.end.p0(i64 8, ptr %7) #5
  call void @llvm.lifetime.end.p0(i64 8, ptr %6) #5
  %100 = load i64, ptr %3, align 8
  ret i64 %100
}

; Function Attrs: nocallback nofree nosync nounwind willreturn memory(argmem: readwrite)
declare void @llvm.lifetime.start.p0(i64 immarg, ptr captures(none)) #1

; Function Attrs: nocallback nofree nounwind willreturn memory(argmem: readwrite)
declare void @llvm.memcpy.p0.p0.i64(ptr noalias writeonly captures(none), ptr noalias readonly captures(none), i64, i1 immarg) #2

; Function Attrs: nocallback nofree nosync nounwind speculatable willreturn memory(none)
declare nonnull ptr @llvm.threadlocal.address.p0(ptr nonnull) #3

declare void @softfloat_raiseFlags(i8 noundef zeroext) #4

; Function Attrs: nocallback nofree nosync nounwind willreturn memory(argmem: readwrite)
declare void @llvm.lifetime.end.p0(i64 immarg, ptr captures(none)) #1


!llvm.module.flags = !{!0, !1, !2}

!0 = !{i32 1, !"wchar_size", i32 4}
!1 = !{i32 8, !"PIC Level", i32 2}
!2 = !{i32 7, !"uwtable", i32 2}
!3 = !{!4, !4, i64 0}
!4 = !{!"_Bool", !5, i64 0}
!5 = !{!"omnipotent char", !6, i64 0}
!6 = !{!"Simple C/C++ TBAA"}
!7 = !{i64 0, i64 8, !8}
!8 = !{!9, !9, i64 0}
!9 = !{!"long", !5, i64 0}
!10 = !{!5, !5, i64 0}
!11 = !{i8 0, i8 2}
!12 = !{}
